; Function Attrs: mustprogress uwtable
define noundef i64 @_ZN5faiss14IndexBinaryIVF10remove_idsERKNS_10IDSelectorE(ptr noundef nonnull align 8 dereferenceable(232) %0, ptr noundef nonnull align 8 dereferenceable(8) %1) unnamed_addr #1 align 2 {
  %3 = getelementptr inbounds i8, ptr %0, i64 72
  %4 = getelementptr inbounds i8, ptr %0, i64 32
  %5 = load ptr, ptr %4, align 8
  %6 = tail call noundef i64 @_ZN5faiss9DirectMap10remove_idsERKNS_10IDSelectorEPNS_13InvertedListsE(ptr noundef nonnull align 8 dereferenceable(88) %3, ptr noundef nonnull align 8 dereferenceable(8) %1, ptr noundef %5)
  %7 = getelementptr inbounds i8, ptr %0, i64 16
  %8 = load i64, ptr %7, align 8
  %9 = sub i64 %8, %6
  store i64 %9, ptr %7, align 8
  ret i64 %6
}